; ModuleID = '20/691.c'
source_filename = "20/691.c"
target datalayout = "e-m:e-p270:32:32-p271:32:32-p272:64:64-i64:64-f80:128-n8:16:32:64-S128"
target triple = "x86_64-pc-linux-gnu"

@.str = private unnamed_addr constant [6 x i8] c"%s %s\00", align 1
@.str.1 = private unnamed_addr constant [4 x i8] c"%s\0A\00", align 1

; Function Attrs: noinline nounwind uwtable
define dso_local i32 @findmax(i8* %0) #0 {
  %2 = alloca i8*, align 8
  %3 = alloca i32, align 4
  %4 = alloca i32, align 4
  %5 = alloca i32, align 4
  %6 = alloca i32, align 4
  %7 = alloca i32, align 4
  store i8* %0, i8** %2, align 8
  store i32 0, i32* %3, align 4
  %8 = load i8*, i8** %2, align 8
  %9 = getelementptr inbounds i8, i8* %8, i64 0
  %10 = load i8, i8* %9, align 1
  %11 = sext i8 %10 to i32
  store i32 %11, i32* %4, align 4
  %12 = load i8*, i8** %2, align 8
  %13 = call i64 @strlen(i8* %12) #4
  %14 = trunc i64 %13 to i32
  store i32 %14, i32* %6, align 4
  %15 = load i8*, i8** %2, align 8
  %16 = getelementptr inbounds i8, i8* %15, i64 0
  %17 = load i8, i8* %16, align 1
  %18 = sext i8 %17 to i32
  store i32 %18, i32* %7, align 4
  store i32 0, i32* %5, align 4
  br label %19

19:                                               ; preds = %45, %1
  %20 = load i32, i32* %5, align 4
  %21 = load i32, i32* %6, align 4
  %22 = sub nsw i32 %21, 1
  %23 = icmp slt i32 %20, %22
  br i1 %23, label %24, label %48

24:                                               ; preds = %19
  %25 = load i8*, i8** %2, align 8
  %26 = load i32, i32* %5, align 4
  %27 = add nsw i32 %26, 1
  %28 = sext i32 %27 to i64
  %29 = getelementptr inbounds i8, i8* %25, i64 %28
  %30 = load i8, i8* %29, align 1
  %31 = sext i8 %30 to i32
  %32 = load i32, i32* %4, align 4
  %33 = icmp sgt i32 %31, %32
  br i1 %33, label %34, label %44

34:                                               ; preds = %24
  %35 = load i32, i32* %5, align 4
  %36 = add nsw i32 %35, 1
  store i32 %36, i32* %3, align 4
  %37 = load i8*, i8** %2, align 8
  %38 = load i32, i32* %5, align 4
  %39 = add nsw i32 %38, 1
  %40 = sext i32 %39 to i64
  %41 = getelementptr inbounds i8, i8* %37, i64 %40
  %42 = load i8, i8* %41, align 1
  %43 = sext i8 %42 to i32
  store i32 %43, i32* %4, align 4
  br label %44

44:                                               ; preds = %34, %24
  br label %45

45:                                               ; preds = %44
  %46 = load i32, i32* %5, align 4
  %47 = add nsw i32 %46, 1
  store i32 %47, i32* %5, align 4
  br label %19

48:                                               ; preds = %19
  %49 = load i32, i32* %3, align 4
  ret i32 %49
}

; Function Attrs: nounwind readonly
declare dso_local i64 @strlen(i8*) #1

; Function Attrs: noinline nounwind uwtable
define dso_local void @main() #0 {
  %1 = alloca i32, align 4
  %2 = alloca i32, align 4
  %3 = alloca i32, align 4
  %4 = alloca [15 x i8], align 1
  %5 = alloca [5 x i8], align 1
  %6 = bitcast [15 x i8]* %4 to i8*
  call void @llvm.memset.p0i8.i64(i8* align 1 %6, i8 0, i64 15, i1 false)
  %7 = bitcast [5 x i8]* %5 to i8*
  call void @llvm.memset.p0i8.i64(i8* align 1 %7, i8 0, i64 5, i1 false)
  br label %8

8:                                                ; preds = %79, %0
  %9 = getelementptr inbounds [15 x i8], [15 x i8]* %4, i64 0, i64 0
  %10 = getelementptr inbounds [5 x i8], [5 x i8]* %5, i64 0, i64 0
  %11 = call i32 (i8*, ...) @__isoc99_scanf(i8* getelementptr inbounds ([6 x i8], [6 x i8]* @.str, i64 0, i64 0), i8* %9, i8* %10)
  %12 = icmp ne i32 %11, -1
  br i1 %12, label %13, label %80

13:                                               ; preds = %8
  %14 = getelementptr inbounds [15 x i8], [15 x i8]* %4, i64 0, i64 0
  %15 = call i32 @findmax(i8* %14)
  store i32 %15, i32* %2, align 4
  %16 = getelementptr inbounds [15 x i8], [15 x i8]* %4, i64 0, i64 0
  %17 = call i64 @strlen(i8* %16) #4
  %18 = trunc i64 %17 to i32
  store i32 %18, i32* %1, align 4
  %19 = load i32, i32* %1, align 4
  %20 = sub nsw i32 %19, 1
  store i32 %20, i32* %3, align 4
  br label %21

21:                                               ; preds = %34, %13
  %22 = load i32, i32* %3, align 4
  %23 = load i32, i32* %2, align 4
  %24 = icmp sgt i32 %22, %23
  br i1 %24, label %25, label %37

25:                                               ; preds = %21
  %26 = load i32, i32* %3, align 4
  %27 = sext i32 %26 to i64
  %28 = getelementptr inbounds [15 x i8], [15 x i8]* %4, i64 0, i64 %27
  %29 = load i8, i8* %28, align 1
  %30 = load i32, i32* %3, align 4
  %31 = add nsw i32 %30, 3
  %32 = sext i32 %31 to i64
  %33 = getelementptr inbounds [15 x i8], [15 x i8]* %4, i64 0, i64 %32
  store i8 %29, i8* %33, align 1
  br label %34

34:                                               ; preds = %25
  %35 = load i32, i32* %3, align 4
  %36 = add nsw i32 %35, -1
  store i32 %36, i32* %3, align 4
  br label %21

37:                                               ; preds = %21
  store i32 0, i32* %3, align 4
  br label %38

38:                                               ; preds = %52, %37
  %39 = load i32, i32* %3, align 4
  %40 = icmp slt i32 %39, 3
  br i1 %40, label %41, label %55

41:                                               ; preds = %38
  %42 = load i32, i32* %3, align 4
  %43 = sext i32 %42 to i64
  %44 = getelementptr inbounds [5 x i8], [5 x i8]* %5, i64 0, i64 %43
  %45 = load i8, i8* %44, align 1
  %46 = load i32, i32* %2, align 4
  %47 = load i32, i32* %3, align 4
  %48 = add nsw i32 %46, %47
  %49 = add nsw i32 %48, 1
  %50 = sext i32 %49 to i64
  %51 = getelementptr inbounds [15 x i8], [15 x i8]* %4, i64 0, i64 %50
  store i8 %45, i8* %51, align 1
  br label %52

52:                                               ; preds = %41
  %53 = load i32, i32* %3, align 4
  %54 = add nsw i32 %53, 1
  store i32 %54, i32* %3, align 4
  br label %38

55:                                               ; preds = %38
  %56 = getelementptr inbounds [15 x i8], [15 x i8]* %4, i64 0, i64 0
  %57 = call i32 (i8*, ...) @printf(i8* getelementptr inbounds ([4 x i8], [4 x i8]* @.str.1, i64 0, i64 0), i8* %56)
  store i32 0, i32* %3, align 4
  br label %58

58:                                               ; preds = %65, %55
  %59 = load i32, i32* %3, align 4
  %60 = icmp slt i32 %59, 15
  br i1 %60, label %61, label %68

61:                                               ; preds = %58
  %62 = load i32, i32* %3, align 4
  %63 = sext i32 %62 to i64
  %64 = getelementptr inbounds [15 x i8], [15 x i8]* %4, i64 0, i64 %63
  store i8 0, i8* %64, align 1
  br label %65

65:                                               ; preds = %61
  %66 = load i32, i32* %3, align 4
  %67 = add nsw i32 %66, 1
  store i32 %67, i32* %3, align 4
  br label %58

68:                                               ; preds = %58
  store i32 0, i32* %3, align 4
  br label %69

69:                                               ; preds = %76, %68
  %70 = load i32, i32* %3, align 4
  %71 = icmp slt i32 %70, 3
  br i1 %71, label %72, label %79

72:                                               ; preds = %69
  %73 = load i32, i32* %3, align 4
  %74 = sext i32 %73 to i64
  %75 = getelementptr inbounds [5 x i8], [5 x i8]* %5, i64 0, i64 %74
  store i8 0, i8* %75, align 1
  br label %76

76:                                               ; preds = %72
  %77 = load i32, i32* %3, align 4
  %78 = add nsw i32 %77, 1
  store i32 %78, i32* %3, align 4
  br label %69

79:                                               ; preds = %69
  br label %8

80:                                               ; preds = %8
  ret void
}

; Function Attrs: argmemonly nounwind willreturn
declare void @llvm.memset.p0i8.i64(i8* nocapture writeonly, i8, i64, i1 immarg) #2

declare dso_local i32 @__isoc99_scanf(i8*, ...) #3

declare dso_local i32 @printf(i8*, ...) #3


!llvm.module.flags = !{!0}
!llvm.ident = !{!1}

!0 = !{i32 1, !"wchar_size", i32 4}
!1 = !{!"clang version 10.0.0-4ubuntu1 "}
